; ModuleID = 'source-C-CXX/24/396.cpp'
source_filename = "source-C-CXX/24/396.cpp"
target datalayout = "e-m:e-p270:32:32-p271:32:32-p272:64:64-i64:64-f80:128-n8:16:32:64-S128"
target triple = "x86_64-pc-linux-gnu"

%"class.std::ios_base::Init" = type { i8 }
%"class.std::basic_istream" = type { i32 (...)**, i64, %"class.std::basic_ios" }
%"class.std::basic_ios" = type { %"class.std::ios_base", %"class.std::basic_ostream"*, i8, i8, %"class.std::basic_streambuf"*, %"class.std::ctype"*, %"class.std::num_put"*, %"class.std::num_get"* }
%"class.std::ios_base" = type { i32 (...)**, i64, i64, i32, i32, i32, %"struct.std::ios_base::_Callback_list"*, %"struct.std::ios_base::_Words", [8 x %"struct.std::ios_base::_Words"], i32, %"struct.std::ios_base::_Words"*, %"class.std::locale" }
%"struct.std::ios_base::_Callback_list" = type { %"struct.std::ios_base::_Callback_list"*, void (i32, %"class.std::ios_base"*, i32)*, i32, i32 }
%"struct.std::ios_base::_Words" = type { i8*, i64 }
%"class.std::locale" = type { %"class.std::locale::_Impl"* }
%"class.std::locale::_Impl" = type { i32, %"class.std::locale::facet"**, i64, %"class.std::locale::facet"**, i8** }
%"class.std::locale::facet" = type <{ i32 (...)**, i32, [4 x i8] }>
%"class.std::basic_ostream" = type { i32 (...)**, %"class.std::basic_ios" }
%"class.std::basic_streambuf" = type { i32 (...)**, i8*, i8*, i8*, i8*, i8*, i8*, %"class.std::locale" }
%"class.std::ctype" = type <{ %"class.std::locale::facet.base", [4 x i8], %struct.__locale_struct*, i8, [7 x i8], i32*, i32*, i16*, i8, [256 x i8], [256 x i8], i8, [6 x i8] }>
%"class.std::locale::facet.base" = type <{ i32 (...)**, i32 }>
%struct.__locale_struct = type { [13 x %struct.__locale_data*], i16*, i32*, i32*, [13 x i8*] }
%struct.__locale_data = type opaque
%"class.std::num_put" = type { %"class.std::locale::facet.base", [4 x i8] }
%"class.std::num_get" = type { %"class.std::locale::facet.base", [4 x i8] }

@_ZStL8__ioinit = internal global %"class.std::ios_base::Init" zeroinitializer, align 1
@__dso_handle = external hidden global i8
@_ZSt3cin = external global %"class.std::basic_istream", align 8
@_ZSt4cout = external global %"class.std::basic_ostream", align 8
@llvm.global_ctors = appending global [1 x { i32, void ()*, i8* }] [{ i32, void ()*, i8* } { i32 65535, void ()* @_GLOBAL__sub_I_396.cpp, i8* null }]

declare void @_ZNSt8ios_base4InitC1Ev(%"class.std::ios_base::Init"* nonnull align 1 dereferenceable(1)) unnamed_addr #0

; Function Attrs: nounwind
declare void @_ZNSt8ios_base4InitD1Ev(%"class.std::ios_base::Init"* nonnull align 1 dereferenceable(1)) unnamed_addr #1

; Function Attrs: nofree nounwind
declare i32 @__cxa_atexit(void (i8*)*, i8*, i8*) local_unnamed_addr #2

; Function Attrs: mustprogress norecurse sspstrong uwtable
define dso_local i32 @main() local_unnamed_addr #3 {
  %1 = alloca i32, align 4
  %2 = alloca [1000 x i32], align 16
  %3 = bitcast i32* %1 to i8*
  call void @llvm.lifetime.start.p0i8(i64 4, i8* nonnull %3) #7
  %4 = bitcast [1000 x i32]* %2 to i8*
  call void @llvm.lifetime.start.p0i8(i64 4000, i8* nonnull %4) #7
  call void @llvm.memset.p0i8.i64(i8* noundef nonnull align 16 dereferenceable(4000) %4, i8 0, i64 4000, i1 false)
  %5 = call nonnull align 8 dereferenceable(16) %"class.std::basic_istream"* @_ZNSirsERi(%"class.std::basic_istream"* nonnull align 8 dereferenceable(16) @_ZSt3cin, i32* nonnull align 4 dereferenceable(4) %1)
  %6 = getelementptr inbounds [1000 x i32], [1000 x i32]* %2, i64 0, i64 0
  store i32 1, i32* %6, align 16, !tbaa !5
  %7 = load i32, i32* %1, align 4, !tbaa !5
  %8 = icmp slt i32 %7, 1
  br i1 %8, label %22, label %9

9:                                                ; preds = %0, %68
  %10 = phi i32 [ %69, %68 ], [ 0, %0 ]
  %11 = phi i32 [ %70, %68 ], [ 1, %0 ]
  %12 = icmp slt i32 %10, 0
  br i1 %12, label %68, label %13

13:                                               ; preds = %9
  %14 = add nuw i32 %10, 1
  %15 = zext i32 %14 to i64
  %16 = and i64 %15, 1
  %17 = icmp eq i32 %10, 0
  br i1 %17, label %49, label %18

18:                                               ; preds = %13
  %19 = and i64 %15, 4294967294
  br label %25

20:                                               ; preds = %68
  %21 = icmp sgt i32 %69, -1
  br i1 %21, label %22, label %79

22:                                               ; preds = %0, %20
  %23 = phi i32 [ %69, %20 ], [ 0, %0 ]
  %24 = zext i32 %23 to i64
  br label %72

25:                                               ; preds = %25, %18
  %26 = phi i64 [ 0, %18 ], [ %46, %25 ]
  %27 = phi i32 [ 0, %18 ], [ %45, %25 ]
  %28 = phi i64 [ %19, %18 ], [ %47, %25 ]
  %29 = getelementptr inbounds [1000 x i32], [1000 x i32]* %2, i64 0, i64 %26
  %30 = load i32, i32* %29, align 8, !tbaa !5
  %31 = shl nsw i32 %30, 1
  %32 = or i32 %31, %27
  %33 = icmp sgt i32 %32, 9
  %34 = add nsw i32 %32, -10
  %35 = select i1 %33, i32 %34, i32 %32
  %36 = zext i1 %33 to i32
  store i32 %35, i32* %29, align 8, !tbaa !5
  %37 = or i64 %26, 1
  %38 = getelementptr inbounds [1000 x i32], [1000 x i32]* %2, i64 0, i64 %37
  %39 = load i32, i32* %38, align 4, !tbaa !5
  %40 = shl nsw i32 %39, 1
  %41 = or i32 %40, %36
  %42 = icmp sgt i32 %41, 9
  %43 = add nsw i32 %41, -10
  %44 = select i1 %42, i32 %43, i32 %41
  %45 = zext i1 %42 to i32
  store i32 %44, i32* %38, align 4, !tbaa !5
  %46 = add nuw nsw i64 %26, 2
  %47 = add i64 %28, -2
  %48 = icmp eq i64 %47, 0
  br i1 %48, label %49, label %25, !llvm.loop !9

49:                                               ; preds = %25, %13
  %50 = phi i1 [ undef, %13 ], [ %42, %25 ]
  %51 = phi i64 [ 0, %13 ], [ %46, %25 ]
  %52 = phi i32 [ 0, %13 ], [ %45, %25 ]
  %53 = icmp eq i64 %16, 0
  br i1 %53, label %62, label %54

54:                                               ; preds = %49
  %55 = getelementptr inbounds [1000 x i32], [1000 x i32]* %2, i64 0, i64 %51
  %56 = load i32, i32* %55, align 4, !tbaa !5
  %57 = shl nsw i32 %56, 1
  %58 = or i32 %57, %52
  %59 = icmp sgt i32 %58, 9
  %60 = add nsw i32 %58, -10
  %61 = select i1 %59, i32 %60, i32 %58
  store i32 %61, i32* %55, align 4, !tbaa !5
  br label %62

62:                                               ; preds = %49, %54
  %63 = phi i1 [ %50, %49 ], [ %59, %54 ]
  br i1 %63, label %64, label %68

64:                                               ; preds = %62
  %65 = add nsw i32 %10, 1
  %66 = sext i32 %65 to i64
  %67 = getelementptr inbounds [1000 x i32], [1000 x i32]* %2, i64 0, i64 %66
  store i32 1, i32* %67, align 4, !tbaa !5
  br label %68

68:                                               ; preds = %9, %62, %64
  %69 = phi i32 [ %65, %64 ], [ %10, %62 ], [ %10, %9 ]
  %70 = add nuw i32 %11, 1
  %71 = icmp eq i32 %11, %7
  br i1 %71, label %20, label %9, !llvm.loop !11

72:                                               ; preds = %22, %72
  %73 = phi i64 [ %24, %22 ], [ %78, %72 ]
  %74 = getelementptr inbounds [1000 x i32], [1000 x i32]* %2, i64 0, i64 %73
  %75 = load i32, i32* %74, align 4, !tbaa !5
  %76 = call nonnull align 8 dereferenceable(8) %"class.std::basic_ostream"* @_ZNSolsEi(%"class.std::basic_ostream"* nonnull align 8 dereferenceable(8) @_ZSt4cout, i32 %75)
  %77 = icmp sgt i64 %73, 0
  %78 = add nsw i64 %73, -1
  br i1 %77, label %72, label %79, !llvm.loop !12

79:                                               ; preds = %72, %20
  call void @llvm.lifetime.end.p0i8(i64 4000, i8* nonnull %4) #7
  call void @llvm.lifetime.end.p0i8(i64 4, i8* nonnull %3) #7
  ret i32 0
}

; Function Attrs: argmemonly mustprogress nofree nosync nounwind willreturn
declare void @llvm.lifetime.start.p0i8(i64 immarg, i8* nocapture) #4

; Function Attrs: argmemonly mustprogress nofree nounwind willreturn writeonly
declare void @llvm.memset.p0i8.i64(i8* nocapture writeonly, i8, i64, i1 immarg) #5

declare nonnull align 8 dereferenceable(16) %"class.std::basic_istream"* @_ZNSirsERi(%"class.std::basic_istream"* nonnull align 8 dereferenceable(16), i32* nonnull align 4 dereferenceable(4)) local_unnamed_addr #0

declare nonnull align 8 dereferenceable(8) %"class.std::basic_ostream"* @_ZNSolsEi(%"class.std::basic_ostream"* nonnull align 8 dereferenceable(8), i32) local_unnamed_addr #0

; Function Attrs: argmemonly mustprogress nofree nosync nounwind willreturn
declare void @llvm.lifetime.end.p0i8(i64 immarg, i8* nocapture) #4

; Function Attrs: sspstrong uwtable
define internal void @_GLOBAL__sub_I_396.cpp() #6 section ".text.startup" {
  tail call void @_ZNSt8ios_base4InitC1Ev(%"class.std::ios_base::Init"* nonnull align 1 dereferenceable(1) @_ZStL8__ioinit)
  %1 = tail call i32 @__cxa_atexit(void (i8*)* bitcast (void (%"class.std::ios_base::Init"*)* @_ZNSt8ios_base4InitD1Ev to void (i8*)*), i8* getelementptr inbounds (%"class.std::ios_base::Init", %"class.std::ios_base::Init"* @_ZStL8__ioinit, i64 0, i32 0), i8* nonnull @__dso_handle) #7
  ret void
}


!llvm.module.flags = !{!0, !1, !2, !3}
!llvm.ident = !{!4}

!0 = !{i32 1, !"wchar_size", i32 4}
!1 = !{i32 7, !"PIC Level", i32 2}
!2 = !{i32 7, !"PIE Level", i32 2}
!3 = !{i32 7, !"uwtable", i32 1}
!4 = !{!"clang version 13.0.0"}
!5 = !{!6, !6, i64 0}
!6 = !{!"int", !7, i64 0}
!7 = !{!"omnipotent char", !8, i64 0}
!8 = !{!"Simple C++ TBAA"}
!9 = distinct !{!9, !10}
!10 = !{!"llvm.loop.mustprogress"}
!11 = distinct !{!11, !10}
!12 = distinct !{!12, !10}
